(lp1
(lp2
I37
aI0
aI0
aI0
aa(lp3
I20
aI0
aI0
aI0
aa(lp4
I11
aI0
aI0
aI0
aa(lp5
I11
aI0
aI0
aI0
aa(lp6
I19
aI0
aI0
aI0
aa(lp7
I14
aI0
aI0
aI0
aa(lp8
I11
aI0
aI0
aI0
aa(lp9
I13
aI0
aI0
aI0
aa(lp10
I18
aI0
aI0
aI0
aa(lp11
I34
aI0
aI0
aI0
aa(lp12
I12
aI0
aI0
aI0
aa(lp13
I16
aI0
aI0
aI0
aa(lp14
I9
aI0
aI0
aI0
aa(lp15
I16
aI0
aI0
aI0
aa(lp16
I16
aI0
aI0
aI0
aa(lp17
I16
aI0
aI0
aI0
aa(lp18
I18
aI0
aI0
aI0
aa(lp19
I17
aI0
aI0
aI0
aa(lp20
I24
aI0
aI0
aI0
aa(lp21
I19
aI0
aI0
aI0
aa(lp22
I26
aI0
aI0
aI0
aa(lp23
I23
aI0
aI0
aI0
aa(lp24
I15
aI0
aI0
aI0
aa(lp25
I16
aI0
aI0
aI0
aa(lp26
I21
aI0
aI0
aI0
aa(lp27
I10
aI0
aI0
aI0
aa(lp28
I22
aI0
aI0
aI0
aa(lp29
I22
aI0
aI0
aI0
aa(lp30
I19
aI0
aI0
aI0
aa(lp31
I32
aI0
aI0
aI0
aa(lp32
I15
aI0
aI0
aI0
aa(lp33
I10
aI0
aI0
aI0
aa(lp34
I17
aI0
aI0
aI0
aa(lp35
I23
aI0
aI0
aI0
aa(lp36
I12
aI0
aI0
aI0
aa(lp37
I32
aI0
aI0
aI0
aa(lp38
I17
aI0
aI0
aI0
aa(lp39
I31
aI0
aI0
aI0
aa(lp40
I18
aI0
aI0
aI0
aa(lp41
I29
aI0
aI0
aI0
aa(lp42
I12
aI0
aI0
aI0
aa(lp43
I10
aI0
aI0
aI0
aa(lp44
I14
aI0
aI0
aI0
aa(lp45
I24
aI0
aI0
aI0
aa(lp46
I7
aI0
aI0
aI0
aa(lp47
I26
aI0
aI0
aI0
aa(lp48
I16
aI0
aI0
aI0
aa(lp49
I21
aI0
aI0
aI0
aa(lp50
I13
aI0
aI0
aI0
aa(lp51
I23
aI0
aI0
aI0
aa(lp52
I20
aI0
aI0
aI0
aa(lp53
I10
aI0
aI0
aI0
aa(lp54
I30
aI0
aI0
aI0
aa(lp55
I19
aI0
aI0
aI0
aa(lp56
I17
aI0
aI0
aI0
aa(lp57
I8
aI0
aI0
aI0
aa(lp58
I17
aI0
aI0
aI0
aa(lp59
I20
aI0
aI0
aI0
aa(lp60
I21
aI0
aI0
aI0
aa(lp61
I16
aI0
aI0
aI0
aa(lp62
I13
aI0
aI0
aI0
aa(lp63
I13
aI0
aI0
aI0
aa(lp64
I13
aI0
aI0
aI0
aa(lp65
I10
aI0
aI0
aI0
aa(lp66
I21
aI0
aI0
aI0
aa(lp67
I25
aI0
aI0
aI0
aa(lp68
I22
aI0
aI0
aI0
aa(lp69
I17
aI0
aI0
aI0
aa(lp70
I20
aI0
aI0
aI0
aa(lp71
I20
aI0
aI0
aI0
aa(lp72
I13
aI0
aI0
aI0
aa(lp73
I20
aI0
aI0
aI0
aa(lp74
I11
aI0
aI0
aI0
aa(lp75
I14
aI0
aI0
aI0
aa(lp76
I29
aI0
aI0
aI0
aa(lp77
I36
aI0
aI0
aI0
aa(lp78
I13
aI0
aI0
aI0
aa(lp79
I16
aI0
aI0
aI0
aa(lp80
I15
aI0
aI0
aI0
aa(lp81
I30
aI0
aI0
aI0
aa(lp82
I21
aI0
aI0
aI0
aa(lp83
I14
aI0
aI0
aI0
aa(lp84
I38
aI0
aI0
aI0
aa(lp85
I17
aI0
aI0
aI0
aa(lp86
I20
aI0
aI0
aI0
aa(lp87
I10
aI0
aI0
aI0
aa(lp88
I24
aI0
aI0
aI0
aa(lp89
I9
aI0
aI0
aI0
aa(lp90
I11
aI0
aI0
aI0
aa(lp91
I24
aI0
aI0
aI0
aa(lp92
I15
aI0
aI0
aI0
aa(lp93
I9
aI0
aI0
aI0
aa(lp94
I8
aI0
aI0
aI0
aa(lp95
I23
aI0
aI0
aI0
aa(lp96
I25
aI0
aI0
aI0
aa(lp97
I12
aI0
aI0
aI0
aa(lp98
I9
aI0
aI0
aI0
aa(lp99
I28
aI0
aI0
aI0
aa(lp100
I17
aI0
aI0
aI0
aa(lp101
I15
aI0
aI0
aI0
aa(lp102
I26
aI0
aI0
aI0
aa(lp103
I21
aI0
aI0
aI0
aa(lp104
I9
aI0
aI0
aI0
aa(lp105
I17
aI0
aI0
aI0
aa(lp106
I28
aI0
aI0
aI0
aa(lp107
I20
aI0
aI0
aI0
aa(lp108
I23
aI0
aI0
aI0
aa(lp109
I10
aI0
aI0
aI0
aa(lp110
I13
aI0
aI0
aI0
aa(lp111
I19
aI0
aI0
aI0
aa(lp112
I11
aI0
aI0
aI0
aa(lp113
I46
aI0
aI0
aI0
aa(lp114
I11
aI0
aI0
aI0
aa(lp115
I5
aI0
aI0
aI0
aa(lp116
I22
aI0
aI0
aI0
aa(lp117
I15
aI0
aI0
aI0
aa(lp118
I8
aI0
aI0
aI0
aa(lp119
I27
aI0
aI0
aI0
aa(lp120
I38
aI0
aI0
aI0
aa(lp121
I7
aI0
aI0
aI0
aa.