(lp1
(lp2
I12
aI6
aI0
aI0
aa(lp3
I32
aI13
aI0
aI0
aa(lp4
I19
aI3
aI0
aI0
aa(lp5
I18
aI10
aI0
aI0
aa(lp6
I20
aI5
aI0
aI0
aa(lp7
I20
aI5
aI0
aI0
aa(lp8
I8
aI3
aI0
aI0
aa(lp9
I12
aI3
aI0
aI0
aa(lp10
I23
aI9
aI0
aI0
aa(lp11
I38
aI7
aI0
aI0
aa(lp12
I25
aI9
aI0
aI0
aa(lp13
I22
aI7
aI0
aI0
aa(lp14
I10
aI2
aI0
aI0
aa(lp15
I17
aI6
aI0
aI0
aa(lp16
I24
aI8
aI0
aI4
aa(lp17
I24
aI8
aI0
aI0
aa(lp18
I15
aI2
aI0
aI0
aa(lp19
I27
aI3
aI0
aI0
aa(lp20
I3
aI0
aI0
aI0
aa(lp21
I13
aI5
aI0
aI0
aa(lp22
I24
aI9
aI0
aI0
aa(lp23
I15
aI5
aI0
aI0
aa(lp24
I9
aI2
aI0
aI0
aa(lp25
I25
aI5
aI0
aI0
aa(lp26
I24
aI6
aI0
aI0
aa(lp27
I22
aI8
aI0
aI0
aa(lp28
I21
aI9
aI0
aI0
aa(lp29
I14
aI2
aI0
aI0
aa(lp30
I11
aI3
aI0
aI4
aa(lp31
I16
aI5
aI0
aI0
aa(lp32
I15
aI8
aI0
aI0
aa(lp33
I20
aI5
aI0
aI0
aa(lp34
I25
aI6
aI0
aI0
aa(lp35
I16
aI7
aI0
aI0
aa(lp36
I16
aI2
aI0
aI0
aa(lp37
I22
aI8
aI0
aI0
aa(lp38
I32
aI4
aI0
aI0
aa(lp39
I13
aI4
aI0
aI0
aa(lp40
I19
aI7
aI0
aI0
aa(lp41
I16
aI7
aI0
aI0
aa(lp42
I23
aI6
aI0
aI0
aa(lp43
I20
aI4
aI0
aI0
aa(lp44
I29
aI11
aI0
aI0
aa(lp45
I14
aI6
aI0
aI0
aa(lp46
I13
aI4
aI0
aI0
aa(lp47
I32
aI10
aI0
aI0
aa(lp48
I15
aI4
aI0
aI0
aa(lp49
I15
aI6
aI0
aI0
aa(lp50
I25
aI4
aI0
aI0
aa(lp51
I17
aI7
aI0
aI0
aa(lp52
I7
aI2
aI0
aI0
aa(lp53
I18
aI4
aI0
aI0
aa(lp54
I8
aI3
aI0
aI0
aa(lp55
I19
aI5
aI0
aI0
aa(lp56
I2
aI0
aI0
aI0
aa(lp57
I26
aI5
aI0
aI0
aa(lp58
I27
aI5
aI0
aI0
aa(lp59
I13
aI7
aI0
aI0
aa(lp60
I9
aI1
aI0
aI0
aa(lp61
I9
aI2
aI0
aI0
aa(lp62
I13
aI7
aI0
aI0
aa(lp63
I37
aI14
aI0
aI0
aa(lp64
I24
aI4
aI0
aI0
aa(lp65
I22
aI13
aI0
aI0
aa(lp66
I13
aI3
aI0
aI0
aa.