(lp1
(lp2
I20
aI0
aI0
aI0
aa(lp3
I19
aI0
aI0
aI0
aa(lp4
I16
aI0
aI0
aI0
aa(lp5
I21
aI0
aI0
aI0
aa(lp6
I10
aI0
aI0
aI0
aa(lp7
I26
aI0
aI0
aI0
aa(lp8
I22
aI0
aI0
aI0
aa(lp9
I21
aI0
aI0
aI0
aa(lp10
I10
aI0
aI0
aI0
aa(lp11
I13
aI0
aI0
aI0
aa(lp12
I16
aI0
aI0
aI0
aa(lp13
I29
aI0
aI0
aI0
aa(lp14
I22
aI0
aI0
aI0
aa(lp15
I20
aI0
aI0
aI0
aa(lp16
I9
aI0
aI0
aI0
aa(lp17
I25
aI0
aI0
aI0
aa(lp18
I17
aI0
aI0
aI0
aa(lp19
I35
aI0
aI0
aI0
aa(lp20
I14
aI0
aI0
aI0
aa(lp21
I13
aI0
aI0
aI0
aa(lp22
I11
aI0
aI0
aI0
aa(lp23
I28
aI0
aI0
aI0
aa(lp24
I18
aI0
aI0
aI0
aa(lp25
I52
aI0
aI0
aI0
aa(lp26
I20
aI0
aI0
aI0
aa(lp27
I18
aI0
aI0
aI0
aa(lp28
I9
aI0
aI0
aI0
aa(lp29
I24
aI0
aI0
aI0
aa(lp30
I19
aI0
aI0
aI0
aa(lp31
I10
aI0
aI0
aI0
aa(lp32
I47
aI0
aI0
aI0
aa(lp33
I16
aI0
aI0
aI0
aa(lp34
I38
aI0
aI0
aI0
aa(lp35
I16
aI0
aI0
aI0
aa(lp36
I11
aI0
aI0
aI0
aa(lp37
I11
aI0
aI0
aI0
aa(lp38
I19
aI0
aI0
aI0
aa(lp39
I3
aI0
aI0
aI0
aa(lp40
I11
aI0
aI0
aI0
aa(lp41
I18
aI0
aI0
aI0
aa(lp42
I35
aI0
aI0
aI0
aa(lp43
I22
aI0
aI0
aI0
aa(lp44
I13
aI0
aI0
aI0
aa(lp45
I30
aI0
aI0
aI0
aa(lp46
I15
aI0
aI0
aI0
aa(lp47
I11
aI0
aI0
aI0
aa(lp48
I15
aI0
aI0
aI0
aa(lp49
I19
aI0
aI0
aI0
aa(lp50
I12
aI0
aI0
aI0
aa(lp51
I14
aI0
aI0
aI0
aa(lp52
I32
aI0
aI0
aI62
aa(lp53
I9
aI0
aI0
aI0
aa(lp54
I17
aI0
aI0
aI0
aa(lp55
I7
aI0
aI0
aI0
aa(lp56
I9
aI0
aI0
aI0
aa(lp57
I23
aI0
aI0
aI0
aa(lp58
I15
aI0
aI0
aI0
aa(lp59
I9
aI0
aI0
aI0
aa(lp60
I26
aI0
aI0
aI0
aa(lp61
I20
aI0
aI0
aI0
aa(lp62
I28
aI0
aI0
aI0
aa(lp63
I14
aI0
aI0
aI0
aa(lp64
I11
aI0
aI0
aI0
aa(lp65
I14
aI0
aI0
aI0
aa(lp66
I13
aI0
aI0
aI0
aa(lp67
I25
aI0
aI0
aI0
aa(lp68
I20
aI0
aI0
aI0
aa(lp69
I19
aI0
aI0
aI0
aa(lp70
I26
aI0
aI0
aI0
aa(lp71
I18
aI0
aI0
aI2
aa(lp72
I17
aI0
aI0
aI0
aa(lp73
I32
aI0
aI0
aI0
aa(lp74
I25
aI0
aI0
aI0
aa(lp75
I14
aI0
aI0
aI0
aa(lp76
I24
aI0
aI0
aI0
aa(lp77
I19
aI0
aI0
aI0
aa(lp78
I12
aI0
aI0
aI0
aa(lp79
I16
aI0
aI0
aI0
aa(lp80
I11
aI0
aI0
aI0
aa(lp81
I10
aI0
aI0
aI0
aa(lp82
I24
aI0
aI0
aI0
aa(lp83
I13
aI0
aI0
aI0
aa(lp84
I5
aI0
aI0
aI0
aa(lp85
I44
aI0
aI0
aI0
aa(lp86
I19
aI0
aI0
aI0
aa(lp87
I32
aI0
aI0
aI0
aa(lp88
I23
aI0
aI0
aI0
aa(lp89
I15
aI0
aI0
aI0
aa(lp90
I28
aI0
aI0
aI0
aa(lp91
I4
aI0
aI0
aI0
aa(lp92
I14
aI0
aI0
aI0
aa(lp93
I30
aI0
aI0
aI0
aa(lp94
I15
aI0
aI0
aI0
aa(lp95
I21
aI0
aI0
aI0
aa(lp96
I17
aI0
aI0
aI0
aa(lp97
I14
aI0
aI0
aI0
aa(lp98
I41
aI0
aI0
aI0
aa(lp99
I22
aI0
aI0
aI0
aa(lp100
I9
aI0
aI0
aI0
aa(lp101
I26
aI0
aI0
aI0
aa(lp102
I18
aI0
aI0
aI0
aa(lp103
I13
aI0
aI0
aI0
aa(lp104
I5
aI0
aI0
aI0
aa(lp105
I11
aI0
aI0
aI0
aa(lp106
I6
aI0
aI0
aI0
aa(lp107
I14
aI0
aI0
aI0
aa(lp108
I7
aI0
aI0
aI0
aa(lp109
I13
aI0
aI0
aI0
aa(lp110
I16
aI0
aI0
aI0
aa(lp111
I17
aI0
aI0
aI0
aa(lp112
I25
aI0
aI0
aI0
aa(lp113
I17
aI0
aI0
aI0
aa(lp114
I17
aI0
aI0
aI0
aa(lp115
I20
aI0
aI0
aI0
aa(lp116
I13
aI0
aI0
aI0
aa.